; Function Attrs: nofree nounwind uwtable
define internal fastcc noalias noundef ptr @Vec_IntTwoMerge(ptr noundef readonly captures(none) %0, ptr noundef readonly captures(none) %1) unnamed_addr #8 {
  %3 = getelementptr inbounds nuw i8, ptr %0, i64 4
  %4 = load i32, ptr %3, align 4
  %5 = getelementptr inbounds nuw i8, ptr %1, i64 4
  %6 = load i32, ptr %5, align 4
  %7 = add nsw i32 %6, %4
  %8 = tail call noalias dereferenceable_or_null(16) ptr @malloc(i64 noundef 16) #22
  %9 = add i32 %7, -1
  %or.cond.i = icmp ult i32 %9, 15
  %spec.store.select.i = select i1 %or.cond.i, i32 16, i32 %7
  %10 = getelementptr inbounds nuw i8, ptr %8, i64 4
  store i32 0, ptr %10, align 4
  store i32 %spec.store.select.i, ptr %8, align 8
  %.not.i = icmp eq i32 %spec.store.select.i, 0
  br i1 %.not.i, label %Vec_IntAlloc.exit, label %11

11:                                               ; preds = %2
  %12 = sext i32 %spec.store.select.i to i64
  %13 = shl nsw i64 %12, 2
  %14 = tail call noalias ptr @malloc(i64 noundef %13) #22
  br label %Vec_IntAlloc.exit

Vec_IntAlloc.exit:                                ; preds = %2, %11
  %15 = phi ptr [ %14, %11 ], [ null, %2 ]
  %16 = getelementptr inbounds nuw i8, ptr %8, i64 8
  store ptr %15, ptr %16, align 8
  %17 = getelementptr i8, ptr %0, i64 8
  %.val6 = load ptr, ptr %17, align 8
  %18 = getelementptr i8, ptr %1, i64 8
  %.val8 = load ptr, ptr %18, align 8
  %19 = sext i32 %4 to i64
  %20 = getelementptr inbounds i32, ptr %.val6, i64 %19
  %21 = sext i32 %6 to i64
  %22 = getelementptr inbounds i32, ptr %.val8, i64 %21
  %23 = icmp sgt i32 %4, 0
  %24 = icmp sgt i32 %6, 0
  %25 = and i1 %23, %24
  br i1 %25, label %.lr.ph.i, label %.preheader5.i

.preheader5.i:                                    ; preds = %39, %Vec_IntAlloc.exit
  %.036.lcssa.i = phi ptr [ %.val8, %Vec_IntAlloc.exit ], [ %.137.i, %39 ]
  %.033.lcssa.i = phi ptr [ %.val6, %Vec_IntAlloc.exit ], [ %.134.i, %39 ]
  %.0.lcssa.i = phi ptr [ %15, %Vec_IntAlloc.exit ], [ %.1.i, %39 ]
  %26 = icmp ult ptr %.033.lcssa.i, %20
  br i1 %26, label %.lr.ph13.i, label %.preheader.i

.lr.ph.i:                                         ; preds = %Vec_IntAlloc.exit, %39
  %.08.i = phi ptr [ %.1.i, %39 ], [ %15, %Vec_IntAlloc.exit ]
  %.0337.i = phi ptr [ %.134.i, %39 ], [ %.val6, %Vec_IntAlloc.exit ]
  %.0366.i = phi ptr [ %.137.i, %39 ], [ %.val8, %Vec_IntAlloc.exit ]
  %27 = load i32, ptr %.0337.i, align 4
  %28 = load i32, ptr %.0366.i, align 4
  %29 = icmp eq i32 %27, %28
  br i1 %29, label %30, label %33

30:                                               ; preds = %.lr.ph.i
  %31 = getelementptr inbounds nuw i8, ptr %.0337.i, i64 4
  store i32 %27, ptr %.08.i, align 4
  %32 = getelementptr inbounds nuw i8, ptr %.0366.i, i64 4
  br label %39

33:                                               ; preds = %.lr.ph.i
  %34 = icmp slt i32 %27, %28
  br i1 %34, label %35, label %37

35:                                               ; preds = %33
  %36 = getelementptr inbounds nuw i8, ptr %.0337.i, i64 4
  store i32 %27, ptr %.08.i, align 4
  br label %39

37:                                               ; preds = %33
  %38 = getelementptr inbounds nuw i8, ptr %.0366.i, i64 4
  store i32 %28, ptr %.08.i, align 4
  br label %39

39:                                               ; preds = %37, %35, %30
  %.137.i = phi ptr [ %32, %30 ], [ %.0366.i, %35 ], [ %38, %37 ]
  %.134.i = phi ptr [ %31, %30 ], [ %36, %35 ], [ %.0337.i, %37 ]
  %.1.i = getelementptr inbounds nuw i8, ptr %.08.i, i64 4
  %40 = icmp ult ptr %.134.i, %20
  %41 = icmp ult ptr %.137.i, %22
  %42 = select i1 %40, i1 %41, i1 false
  br i1 %42, label %.lr.ph.i, label %.preheader5.i, !llvm.loop !31

.preheader.i:                                     ; preds = %.lr.ph13.i, %.preheader5.i
  %.2.lcssa.i = phi ptr [ %.0.lcssa.i, %.preheader5.i ], [ %46, %.lr.ph13.i ]
  %43 = icmp ult ptr %.036.lcssa.i, %22
  br i1 %43, label %.lr.ph17.i, label %Vec_IntTwoMerge2Int.exit

.lr.ph13.i:                                       ; preds = %.preheader5.i, %.lr.ph13.i
  %.212.i = phi ptr [ %46, %.lr.ph13.i ], [ %.0.lcssa.i, %.preheader5.i ]
  %.23511.i = phi ptr [ %44, %.lr.ph13.i ], [ %.033.lcssa.i, %.preheader5.i ]
  %44 = getelementptr inbounds nuw i8, ptr %.23511.i, i64 4
  %45 = load i32, ptr %.23511.i, align 4
  %46 = getelementptr inbounds nuw i8, ptr %.212.i, i64 4
  store i32 %45, ptr %.212.i, align 4
  %47 = icmp ult ptr %44, %20
  br i1 %47, label %.lr.ph13.i, label %.preheader.i, !llvm.loop !32

.lr.ph17.i:                                       ; preds = %.preheader.i, %.lr.ph17.i
  %.316.i = phi ptr [ %50, %.lr.ph17.i ], [ %.2.lcssa.i, %.preheader.i ]
  %.23815.i = phi ptr [ %48, %.lr.ph17.i ], [ %.036.lcssa.i, %.preheader.i ]
  %48 = getelementptr inbounds nuw i8, ptr %.23815.i, i64 4
  %49 = load i32, ptr %.23815.i, align 4
  %50 = getelementptr inbounds nuw i8, ptr %.316.i, i64 4
  store i32 %49, ptr %.316.i, align 4
  %51 = icmp ult ptr %48, %22
  br i1 %51, label %.lr.ph17.i, label %Vec_IntTwoMerge2Int.exit, !llvm.loop !33

Vec_IntTwoMerge2Int.exit:                         ; preds = %.lr.ph17.i, %.preheader.i
  %.3.lcssa.i = phi ptr [ %.2.lcssa.i, %.preheader.i ], [ %50, %.lr.ph17.i ]
  %52 = load ptr, ptr %16, align 8
  %53 = ptrtoint ptr %.3.lcssa.i to i64
  %54 = ptrtoint ptr %52 to i64
  %55 = sub i64 %53, %54
  %56 = lshr exact i64 %55, 2
  %57 = trunc i64 %56 to i32
  store i32 %57, ptr %10, align 4
  ret ptr %8
}